target datalayout = "e-m:e-p270:32:32-p271:32:32-p272:64:64-i64:64-i128:128-f80:128-n8:16:32:64-S128"
target triple = "x86_64-pc-linux-gnu"

@.str.2 = private unnamed_addr constant [11 x i8] c"dynahash.c\00", align 1
@num_seq_scans = internal global i32 0, align 4
@.str.12 = private unnamed_addr constant [46 x i8] c"leaked hash_seq_search scan for hash table %p\00", align 1
@seq_scan_tables = internal global [100 x ptr] zeroinitializer, align 16
@__func__.AtEOXact_HashTables = private unnamed_addr constant [20 x i8] c"AtEOXact_HashTables\00", align 1

; Function Attrs: nounwind uwtable
define dso_local void @AtEOXact_HashTables(i1 noundef zeroext %0) #0 {
  %2 = alloca i8, align 1
  %3 = alloca i32, align 4
  %4 = zext i1 %0 to i8
  store i8 %4, ptr %2, align 1
  %5 = load i8, ptr %2, align 1, !range !12, !noundef !13
  %6 = trunc i8 %5 to i1
  br i1 %6, label %7, label %31

7:                                                ; preds = %1
  call void @llvm.lifetime.start.p0(i64 4, ptr %3) #11
  store i32 0, ptr %3, align 4
  br label %8

8:                                                ; preds = %27, %7
  %9 = load i32, ptr %3, align 4
  %10 = load i32, ptr @num_seq_scans, align 4
  %11 = icmp slt i32 %9, %10
  br i1 %11, label %12, label %30

12:                                               ; preds = %8
  br label %13

13:                                               ; preds = %12
  br i1 false, label %14, label %16

14:                                               ; preds = %13
  %15 = call zeroext i1 @errstart_cold(i32 noundef 19, ptr noundef null) #13
  br i1 %15, label %18, label %24

16:                                               ; preds = %13
  %17 = call zeroext i1 @errstart(i32 noundef 19, ptr noundef null)
  br i1 %17, label %18, label %24

18:                                               ; preds = %16, %14
  %19 = load i32, ptr %3, align 4
  %20 = sext i32 %19 to i64
  %21 = getelementptr inbounds [100 x ptr], ptr @seq_scan_tables, i64 0, i64 %20
  %22 = load ptr, ptr %21, align 8
  %23 = call i32 (ptr, ...) @errmsg_internal(ptr noundef @.str.12, ptr noundef %22)
  call void @errfinish(ptr noundef @.str.2, i32 noundef 1930, ptr noundef @__func__.AtEOXact_HashTables)
  br label %24

24:                                               ; preds = %18, %16, %14
  br label %25

25:                                               ; preds = %24
  br label %26

26:                                               ; preds = %25
  br label %27

27:                                               ; preds = %26
  %28 = load i32, ptr %3, align 4
  %29 = add i32 %28, 1
  store i32 %29, ptr %3, align 4
  br label %8, !llvm.loop !35

30:                                               ; preds = %8
  call void @llvm.lifetime.end.p0(i64 4, ptr %3) #11
  br label %31

31:                                               ; preds = %30, %1
  store i32 0, ptr @num_seq_scans, align 4
  ret void
}