; Function Attrs: nounwind uwtable
define dso_local void @AtEOXact_HashTables(i1 noundef zeroext %0) local_unnamed_addr #0 {
  %2 = load i32, ptr @num_seq_scans, align 4
  %3 = icmp sgt i32 %2, 0
  %or.cond = select i1 %0, i1 %3, i1 false
  br i1 %or.cond, label %.lr.ph, label %.loopexit

.lr.ph:                                           ; preds = %1, %9
  %indvars.iv = phi i64 [ %indvars.iv.next, %9 ], [ 0, %1 ]
  %4 = tail call zeroext i1 @errstart(i32 noundef 19, ptr noundef null) #17
  br i1 %4, label %5, label %9

5:                                                ; preds = %.lr.ph
  %6 = getelementptr inbounds nuw [100 x ptr], ptr @seq_scan_tables, i64 0, i64 %indvars.iv
  %7 = load ptr, ptr %6, align 8
  %8 = tail call i32 (ptr, ...) @errmsg_internal(ptr noundef nonnull @.str.12, ptr noundef %7) #17
  tail call void @errfinish(ptr noundef nonnull @.str.2, i32 noundef 1930, ptr noundef nonnull @__func__.AtEOXact_HashTables) #17
  br label %9

9:                                                ; preds = %.lr.ph, %5
  %indvars.iv.next = add nuw nsw i64 %indvars.iv, 1
  %10 = load i32, ptr @num_seq_scans, align 4
  %11 = sext i32 %10 to i64
  %12 = icmp slt i64 %indvars.iv.next, %11
  br i1 %12, label %.lr.ph, label %.loopexit, !llvm.loop !33

.loopexit:                                        ; preds = %9, %1
  store i32 0, ptr @num_seq_scans, align 4
  ret void
}